; Function Attrs: mustprogress uwtable
define void @_ZN3nix9writeLineEiNSt7__cxx1112basic_stringIcSt11char_traitsIcESaIcEEE(i32 noundef %0, ptr noundef %1) local_unnamed_addr #2 personality ptr @__gxx_personality_v0 {
  %3 = getelementptr inbounds i8, ptr %1, i64 8
  %4 = load i64, ptr %3, align 8
  %5 = add i64 %4, 1
  %6 = load ptr, ptr %1, align 8
  %7 = getelementptr inbounds i8, ptr %1, i64 16
  %8 = icmp eq ptr %6, %7
  br i1 %8, label %9, label %_ZNKSt7__cxx1112basic_stringIcSt11char_traitsIcESaIcEE8capacityEv.exit.i.i

9:                                                ; preds = %2
  %10 = icmp ult i64 %4, 16
  tail call void @llvm.assume(i1 %10)
  br label %_ZNKSt7__cxx1112basic_stringIcSt11char_traitsIcESaIcEE8capacityEv.exit.i.i

_ZNKSt7__cxx1112basic_stringIcSt11char_traitsIcESaIcEE8capacityEv.exit.i.i: ; preds = %9, %2
  %11 = load i64, ptr %7, align 8
  %12 = select i1 %8, i64 15, i64 %11
  %13 = icmp ugt i64 %5, %12
  br i1 %13, label %14, label %_ZNSt7__cxx1112basic_stringIcSt11char_traitsIcESaIcEEpLEc.exit

14:                                               ; preds = %_ZNKSt7__cxx1112basic_stringIcSt11char_traitsIcESaIcEE8capacityEv.exit.i.i
  tail call void @_ZNSt7__cxx1112basic_stringIcSt11char_traitsIcESaIcEE9_M_mutateEmmPKcm(ptr noundef nonnull align 8 dereferenceable(32) %1, i64 noundef %4, i64 noundef 0, ptr noundef null, i64 noundef 1)
  %.pre.i.i = load ptr, ptr %1, align 8
  br label %_ZNSt7__cxx1112basic_stringIcSt11char_traitsIcESaIcEEpLEc.exit

_ZNSt7__cxx1112basic_stringIcSt11char_traitsIcESaIcEEpLEc.exit: ; preds = %_ZNKSt7__cxx1112basic_stringIcSt11char_traitsIcESaIcEE8capacityEv.exit.i.i, %14
  %15 = phi ptr [ %.pre.i.i, %14 ], [ %6, %_ZNKSt7__cxx1112basic_stringIcSt11char_traitsIcESaIcEE8capacityEv.exit.i.i ]
  %16 = getelementptr inbounds i8, ptr %15, i64 %4
  store i8 10, ptr %16, align 1
  store i64 %5, ptr %3, align 8
  %17 = load ptr, ptr %1, align 8
  %18 = getelementptr inbounds i8, ptr %17, i64 %5
  store i8 0, ptr %18, align 1
  %19 = load ptr, ptr %1, align 8
  %20 = load i64, ptr %3, align 8
  tail call void @_ZN3nix9writeFullEiSt17basic_string_viewIcSt11char_traitsIcEEb(i32 noundef %0, i64 %20, ptr %19, i1 noundef zeroext true)
  ret void
}